target datalayout = "e-m:e-p270:32:32-p271:32:32-p272:64:64-i64:64-i128:128-f80:128-n8:16:32:64-S128"
target triple = "x86_64-pc-linux-gnu"

%struct.PJconsts = type { ptr, ptr, ptr, ptr, ptr, ptr, ptr, ptr, ptr, ptr, ptr, ptr, i32, ptr, ptr, ptr, ptr, ptr, ptr, ptr, ptr, double, double, double, double, double, double, double, double, double, double, double, double, double, double, double, double, double, double, double, double, double, double, i32, i32, i32, i32, i32, i32, i32, i32, i32, i32, i32, ptr, ptr, ptr, ptr, ptr, ptr, double, double, double, double, double, double, double, double, double, double, double, i32, [7 x double], i32, ptr, ptr, double, double, i32, [4 x i8], %"class.std::shared_ptr", i8, double, i8, %"class.std::__cxx11::basic_string", %"class.std::__cxx11::basic_string", %"class.std::__cxx11::basic_string", i8, %"class.std::vector", i32, %"class.std::vector.3", i32, i8, i8, i8, ptr }
%"class.std::shared_ptr" = type { %"class.std::__shared_ptr" }
%"class.std::__shared_ptr" = type { ptr, %"class.std::__shared_count" }
%"class.std::__shared_count" = type { ptr }
%"class.std::__cxx11::basic_string" = type { %"struct.std::__cxx11::basic_string<char>::_Alloc_hider", i64, %union.anon }
%"struct.std::__cxx11::basic_string<char>::_Alloc_hider" = type { ptr }
%union.anon = type { i64, [8 x i8] }
%"class.std::vector" = type { %"struct.std::_Vector_base" }
%"struct.std::_Vector_base" = type { %"struct.std::_Vector_base<osgeo::proj::operation::GridDescription, std::allocator<osgeo::proj::operation::GridDescription>>::_Vector_impl" }
%"struct.std::_Vector_base<osgeo::proj::operation::GridDescription, std::allocator<osgeo::proj::operation::GridDescription>>::_Vector_impl" = type { %"struct.std::_Vector_base<osgeo::proj::operation::GridDescription, std::allocator<osgeo::proj::operation::GridDescription>>::_Vector_impl_data" }
%"struct.std::_Vector_base<osgeo::proj::operation::GridDescription, std::allocator<osgeo::proj::operation::GridDescription>>::_Vector_impl_data" = type { ptr, ptr, ptr }
%"class.std::vector.3" = type { %"struct.std::_Vector_base.4" }
%"struct.std::_Vector_base.4" = type { %"struct.std::_Vector_base<PJCoordOperation, std::allocator<PJCoordOperation>>::_Vector_impl" }
%"struct.std::_Vector_base<PJCoordOperation, std::allocator<PJCoordOperation>>::_Vector_impl" = type { %"struct.std::_Vector_base<PJCoordOperation, std::allocator<PJCoordOperation>>::_Vector_impl_data" }
%"struct.std::_Vector_base<PJCoordOperation, std::allocator<PJCoordOperation>>::_Vector_impl_data" = type { ptr, ptr, ptr }
%"struct.(anonymous namespace)::pj_ccon_data" = type { double, double, double, double, ptr }
%struct.PJ_LP = type { double, double }
%struct.PJ_XY = type { double, double }

; Function Attrs: mustprogress nounwind uwtable
define internal { double, double } @_ZL12ccon_inverse5PJ_XYP8PJconsts(double %0, double %1, ptr noundef %2) #6 {
  %4 = alloca %struct.PJ_LP, align 8
  %5 = alloca %struct.PJ_XY, align 8
  %6 = alloca ptr, align 8
  %7 = alloca ptr, align 8
  %8 = getelementptr inbounds nuw { double, double }, ptr %5, i32 0, i32 0
  store double %0, ptr %8, align 8
  %9 = getelementptr inbounds nuw { double, double }, ptr %5, i32 0, i32 1
  store double %1, ptr %9, align 8
  store ptr %2, ptr %6, align 8, !tbaa !3
  call void @llvm.memset.p0.i64(ptr align 8 %4, i8 0, i64 16, i1 false)
  call void @llvm.lifetime.start.p0(i64 8, ptr %7) #8
  %10 = load ptr, ptr %6, align 8, !tbaa !3
  %11 = getelementptr inbounds nuw %struct.PJconsts, ptr %10, i32 0, i32 11
  %12 = load ptr, ptr %11, align 8, !tbaa !43
  store ptr %12, ptr %7, align 8, !tbaa !41
  %13 = load ptr, ptr %7, align 8, !tbaa !41
  %14 = getelementptr inbounds nuw %"struct.(anonymous namespace)::pj_ccon_data", ptr %13, i32 0, i32 1
  %15 = load double, ptr %14, align 8, !tbaa !56
  %16 = getelementptr inbounds nuw %struct.PJ_XY, ptr %5, i32 0, i32 1
  %17 = load double, ptr %16, align 8, !tbaa !59
  %18 = fsub double %15, %17
  %19 = getelementptr inbounds nuw %struct.PJ_XY, ptr %5, i32 0, i32 1
  store double %18, ptr %19, align 8, !tbaa !59
  %20 = load ptr, ptr %7, align 8, !tbaa !41
  %21 = getelementptr inbounds nuw %"struct.(anonymous namespace)::pj_ccon_data", ptr %20, i32 0, i32 0
  %22 = load double, ptr %21, align 8, !tbaa !48
  %23 = getelementptr inbounds nuw %struct.PJ_XY, ptr %5, i32 0, i32 0
  %24 = load double, ptr %23, align 8, !tbaa !61
  %25 = getelementptr inbounds nuw %struct.PJ_XY, ptr %5, i32 0, i32 1
  %26 = load double, ptr %25, align 8, !tbaa !59
  %27 = call double @hypot(double noundef %24, double noundef %26) #8, !tbaa !53
  %28 = load ptr, ptr %7, align 8, !tbaa !41
  %29 = getelementptr inbounds nuw %"struct.(anonymous namespace)::pj_ccon_data", ptr %28, i32 0, i32 1
  %30 = load double, ptr %29, align 8, !tbaa !56
  %31 = fsub double %27, %30
  %32 = call double @atan(double noundef %31) #8, !tbaa !53
  %33 = fsub double %22, %32
  %34 = getelementptr inbounds nuw %struct.PJ_LP, ptr %4, i32 0, i32 1
  store double %33, ptr %34, align 8, !tbaa !62
  %35 = getelementptr inbounds nuw %struct.PJ_XY, ptr %5, i32 0, i32 0
  %36 = load double, ptr %35, align 8, !tbaa !61
  %37 = getelementptr inbounds nuw %struct.PJ_XY, ptr %5, i32 0, i32 1
  %38 = load double, ptr %37, align 8, !tbaa !59
  %39 = call double @atan2(double noundef %36, double noundef %38) #8, !tbaa !53
  %40 = load ptr, ptr %7, align 8, !tbaa !41
  %41 = getelementptr inbounds nuw %"struct.(anonymous namespace)::pj_ccon_data", ptr %40, i32 0, i32 2
  %42 = load double, ptr %41, align 8, !tbaa !54
  %43 = fdiv double %39, %42
  %44 = getelementptr inbounds nuw %struct.PJ_LP, ptr %4, i32 0, i32 0
  store double %43, ptr %44, align 8, !tbaa !64
  call void @llvm.lifetime.end.p0(i64 8, ptr %7) #8
  %45 = load { double, double }, ptr %4, align 8
  ret { double, double } %45
}