; Function Attrs: mustprogress nofree nounwind willreturn memory(readwrite, inaccessiblemem: write) uwtable
define internal { double, double } @_ZL12ccon_inverse5PJ_XYP8PJconsts(double %0, double %1, ptr noundef readonly captures(none) %2) #5 {
  %4 = getelementptr inbounds nuw i8, ptr %2, i64 88
  %5 = load ptr, ptr %4, align 8, !tbaa !40
  %6 = getelementptr inbounds nuw i8, ptr %5, i64 8
  %7 = load double, ptr %6, align 8, !tbaa !52
  %8 = fsub double %7, %1
  %9 = load double, ptr %5, align 8, !tbaa !44
  %10 = tail call double @hypot(double noundef %0, double noundef %8) #8, !tbaa !49
  %11 = fsub double %10, %7
  %12 = tail call double @atan(double noundef %11) #8, !tbaa !49
  %13 = fsub double %9, %12
  %14 = tail call double @atan2(double noundef %0, double noundef %8) #8, !tbaa !49
  %15 = getelementptr inbounds nuw i8, ptr %5, i64 16
  %16 = load double, ptr %15, align 8, !tbaa !50
  %17 = fdiv double %14, %16
  %.fca.0.insert = insertvalue { double, double } poison, double %17, 0
  %.fca.1.insert = insertvalue { double, double } %.fca.0.insert, double %13, 1
  ret { double, double } %.fca.1.insert
}